#include <math.h>
#include <stdio.h>
#include <stdlib.h>
#include <string.h>
#include <iostream>
using namespace std;

int main()
{
    int i,j,k,m,n;
	int a[1000];
	cin>>n>>k;
	for(i=1;i<=n;i++)
		cin>>a[i];
	for (i=1;i<n;i++)
		for(j=i+1;j<=n;j++)
			if (a[i]+a[j]==k) //?????
				{
      				cout<<"yes"<<endl;
					return 0;
				}
   cout<<"no"<<endl;
	return 0;
}
